; Function Attrs: mustprogress nounwind uwtable
define dso_local noundef i32 @_Z20cmExpr_yylex_destroyPv(ptr noundef captures(none) %0) local_unnamed_addr #1 {
  %2 = getelementptr inbounds nuw i8, ptr %0, i64 24
  %3 = getelementptr inbounds nuw i8, ptr %0, i64 40
  %4 = load ptr, ptr %3, align 8
  %.not25 = icmp eq ptr %4, null
  br i1 %.not25, label %.critedge, label %.lr.ph

.lr.ph:                                           ; preds = %1
  %5 = getelementptr inbounds nuw i8, ptr %0, i64 52
  %6 = getelementptr inbounds nuw i8, ptr %0, i64 64
  %7 = getelementptr inbounds nuw i8, ptr %0, i64 128
  %8 = getelementptr inbounds nuw i8, ptr %0, i64 8
  %9 = getelementptr inbounds nuw i8, ptr %0, i64 48
  %10 = getelementptr inbounds nuw i8, ptr %0, i64 80
  %11 = load i64, ptr %2, align 8
  %12 = getelementptr inbounds ptr, ptr %4, i64 %11
  %13 = load ptr, ptr %12, align 8
  %14 = icmp eq ptr %13, null
  br i1 %14, label %.critedge, label %.thread.i

.thread.i:                                        ; preds = %.lr.ph, %_Z25cmExpr_yypop_buffer_statePv.exit
  %15 = phi ptr [ %61, %_Z25cmExpr_yypop_buffer_statePv.exit ], [ %13, %.lr.ph ]
  %16 = phi ptr [ %60, %_Z25cmExpr_yypop_buffer_statePv.exit ], [ %12, %.lr.ph ]
  store ptr null, ptr %16, align 8
  %17 = getelementptr inbounds nuw i8, ptr %15, i64 32
  %18 = load i32, ptr %17, align 8
  %.not15.i = icmp eq i32 %18, 0
  br i1 %.not15.i, label %_Z23cmExpr_yy_delete_bufferP15yy_buffer_statePv.exit, label %19

19:                                               ; preds = %.thread.i
  %20 = getelementptr inbounds nuw i8, ptr %15, i64 8
  %21 = load ptr, ptr %20, align 8
  tail call void @free(ptr noundef %21) #33
  br label %_Z23cmExpr_yy_delete_bufferP15yy_buffer_statePv.exit

_Z23cmExpr_yy_delete_bufferP15yy_buffer_statePv.exit: ; preds = %.thread.i, %19
  tail call void @free(ptr noundef nonnull %15) #33
  %22 = load ptr, ptr %3, align 8
  %23 = load i64, ptr %2, align 8
  %24 = getelementptr inbounds ptr, ptr %22, i64 %23
  store ptr null, ptr %24, align 8
  %25 = load ptr, ptr %3, align 8
  %.not.i23 = icmp eq ptr %25, null
  br i1 %.not.i23, label %.critedge, label %26

26:                                               ; preds = %_Z23cmExpr_yy_delete_bufferP15yy_buffer_statePv.exit
  %27 = load i64, ptr %2, align 8
  %28 = getelementptr inbounds ptr, ptr %25, i64 %27
  %29 = load ptr, ptr %28, align 8
  %30 = icmp eq ptr %29, null
  br i1 %30, label %_Z25cmExpr_yypop_buffer_statePv.exit, label %.thread.i.i

.thread.i.i:                                      ; preds = %26
  store ptr null, ptr %28, align 8
  %31 = getelementptr inbounds nuw i8, ptr %29, i64 32
  %32 = load i32, ptr %31, align 8
  %.not15.i.i = icmp eq i32 %32, 0
  br i1 %.not15.i.i, label %_Z23cmExpr_yy_delete_bufferP15yy_buffer_statePv.exit.i, label %33

33:                                               ; preds = %.thread.i.i
  %34 = getelementptr inbounds nuw i8, ptr %29, i64 8
  %35 = load ptr, ptr %34, align 8
  tail call void @free(ptr noundef %35) #33
  br label %_Z23cmExpr_yy_delete_bufferP15yy_buffer_statePv.exit.i

_Z23cmExpr_yy_delete_bufferP15yy_buffer_statePv.exit.i: ; preds = %33, %.thread.i.i
  tail call void @free(ptr noundef nonnull %29) #33
  %36 = load ptr, ptr %3, align 8
  %37 = load i64, ptr %2, align 8
  %38 = getelementptr inbounds ptr, ptr %36, i64 %37
  store ptr null, ptr %38, align 8
  %39 = load i64, ptr %2, align 8
  %.not22.i = icmp eq i64 %39, 0
  br i1 %.not22.i, label %42, label %40

40:                                               ; preds = %_Z23cmExpr_yy_delete_bufferP15yy_buffer_statePv.exit.i
  %41 = add i64 %39, -1
  store i64 %41, ptr %2, align 8
  br label %42

42:                                               ; preds = %40, %_Z23cmExpr_yy_delete_bufferP15yy_buffer_statePv.exit.i
  %43 = phi i64 [ %41, %40 ], [ 0, %_Z23cmExpr_yy_delete_bufferP15yy_buffer_statePv.exit.i ]
  %44 = load ptr, ptr %3, align 8
  %.not23.i = icmp eq ptr %44, null
  br i1 %.not23.i, label %.critedge, label %45

45:                                               ; preds = %42
  %46 = getelementptr inbounds ptr, ptr %44, i64 %43
  %47 = load ptr, ptr %46, align 8
  %48 = icmp eq ptr %47, null
  br i1 %48, label %_Z25cmExpr_yypop_buffer_statePv.exit, label %49

49:                                               ; preds = %45
  %50 = getelementptr inbounds nuw i8, ptr %47, i64 28
  %51 = load i32, ptr %50, align 4
  store i32 %51, ptr %5, align 4
  %52 = load ptr, ptr %46, align 8
  %53 = getelementptr inbounds nuw i8, ptr %52, i64 16
  %54 = load ptr, ptr %53, align 8
  store ptr %54, ptr %6, align 8
  store ptr %54, ptr %7, align 8
  %55 = load ptr, ptr %46, align 8
  %56 = load ptr, ptr %55, align 8
  store ptr %56, ptr %8, align 8
  %57 = load i8, ptr %54, align 1
  store i8 %57, ptr %9, align 8
  store i32 1, ptr %10, align 8
  br label %_Z25cmExpr_yypop_buffer_statePv.exit

_Z25cmExpr_yypop_buffer_statePv.exit:             ; preds = %26, %45, %49
  %58 = phi ptr [ %25, %26 ], [ %44, %45 ], [ %44, %49 ]
  %59 = load i64, ptr %2, align 8
  %60 = getelementptr inbounds ptr, ptr %58, i64 %59
  %61 = load ptr, ptr %60, align 8
  %62 = icmp eq ptr %61, null
  br i1 %62, label %.critedge, label %.thread.i, !llvm.loop !14

.critedge:                                        ; preds = %_Z25cmExpr_yypop_buffer_statePv.exit, %_Z23cmExpr_yy_delete_bufferP15yy_buffer_statePv.exit, %42, %.lr.ph, %1
  %.lcssa = phi ptr [ null, %1 ], [ %4, %.lr.ph ], [ null, %42 ], [ null, %_Z23cmExpr_yy_delete_bufferP15yy_buffer_statePv.exit ], [ %58, %_Z25cmExpr_yypop_buffer_statePv.exit ]
  tail call void @free(ptr noundef %.lcssa) #33
  store ptr null, ptr %3, align 8
  %63 = getelementptr inbounds nuw i8, ptr %0, i64 96
  %64 = load ptr, ptr %63, align 8
  tail call void @free(ptr noundef %64) #33
  tail call void @free(ptr noundef nonnull %0) #33
  ret i32 0
}